target datalayout = "e-m:e-p270:32:32-p271:32:32-p272:64:64-i64:64-i128:128-f80:128-n8:16:32:64-S128"
target triple = "x86_64-pc-linux-gnu"

%struct.GlobalOptionsContext = type { ptr, ptr, i32 }

@.str.610 = private unnamed_addr constant [52 x i8] c"-%s is deprecated, use -/filter_complex %s instead\0A\00", align 1

; Function Attrs: nounwind uwtable
define internal i32 @opt_filter_complex_script(ptr noundef %0, ptr noundef %1, ptr noundef %2) #0 {
  %4 = alloca i32, align 4
  %5 = alloca ptr, align 8
  %6 = alloca ptr, align 8
  %7 = alloca ptr, align 8
  %8 = alloca ptr, align 8
  %9 = alloca ptr, align 8
  %10 = alloca i32, align 4
  %11 = alloca i32, align 4
  store ptr %0, ptr %5, align 8, !tbaa !26
  store ptr %1, ptr %6, align 8, !tbaa !23
  store ptr %2, ptr %7, align 8, !tbaa !23
  call void @llvm.lifetime.start.p0(i64 8, ptr %8) #12
  %12 = load ptr, ptr %5, align 8, !tbaa !26
  store ptr %12, ptr %8, align 8, !tbaa !186
  call void @llvm.lifetime.start.p0(i64 8, ptr %9) #12
  call void @llvm.lifetime.start.p0(i64 4, ptr %10) #12
  %13 = load ptr, ptr %7, align 8, !tbaa !23
  %14 = call ptr @file_read(ptr noundef %13)
  store ptr %14, ptr %9, align 8, !tbaa !23
  %15 = load ptr, ptr %9, align 8, !tbaa !23
  %16 = icmp ne ptr %15, null
  br i1 %16, label %18, label %17

17:                                               ; preds = %3
  store i32 -22, ptr %4, align 4
  store i32 1, ptr %11, align 4
  br label %45

18:                                               ; preds = %3
  %19 = load ptr, ptr %6, align 8, !tbaa !23
  %20 = load ptr, ptr %7, align 8, !tbaa !23
  call void (ptr, i32, ptr, ...) @av_log(ptr noundef null, i32 noundef 24, ptr noundef @.str.610, ptr noundef %19, ptr noundef %20)
  %21 = load ptr, ptr %8, align 8, !tbaa !186
  %22 = getelementptr inbounds nuw %struct.GlobalOptionsContext, ptr %21, i32 0, i32 1
  %23 = load ptr, ptr %8, align 8, !tbaa !186
  %24 = getelementptr inbounds nuw %struct.GlobalOptionsContext, ptr %23, i32 0, i32 2
  %25 = load ptr, ptr %8, align 8, !tbaa !186
  %26 = getelementptr inbounds nuw %struct.GlobalOptionsContext, ptr %25, i32 0, i32 2
  %27 = load i32, ptr %26, align 8, !tbaa !110
  %28 = add nsw i32 %27, 1
  %29 = call i32 @grow_array(ptr noundef %22, i32 noundef 8, ptr noundef %24, i32 noundef %28)
  store i32 %29, ptr %10, align 4, !tbaa !16
  %30 = load i32, ptr %10, align 4, !tbaa !16
  %31 = icmp slt i32 %30, 0
  br i1 %31, label %32, label %34

32:                                               ; preds = %18
  call void @av_freep(ptr noundef %9)
  %33 = load i32, ptr %10, align 4, !tbaa !16
  store i32 %33, ptr %4, align 4
  store i32 1, ptr %11, align 4
  br label %45

34:                                               ; preds = %18
  %35 = load ptr, ptr %9, align 8, !tbaa !23
  %36 = load ptr, ptr %8, align 8, !tbaa !186
  %37 = getelementptr inbounds nuw %struct.GlobalOptionsContext, ptr %36, i32 0, i32 1
  %38 = load ptr, ptr %37, align 8, !tbaa !109
  %39 = load ptr, ptr %8, align 8, !tbaa !186
  %40 = getelementptr inbounds nuw %struct.GlobalOptionsContext, ptr %39, i32 0, i32 2
  %41 = load i32, ptr %40, align 8, !tbaa !110
  %42 = sub nsw i32 %41, 1
  %43 = sext i32 %42 to i64
  %44 = getelementptr inbounds ptr, ptr %38, i64 %43
  store ptr %35, ptr %44, align 8, !tbaa !23
  store i32 0, ptr %4, align 4
  store i32 1, ptr %11, align 4
  br label %45

45:                                               ; preds = %34, %32, %17
  call void @llvm.lifetime.end.p0(i64 4, ptr %10) #12
  call void @llvm.lifetime.end.p0(i64 8, ptr %9) #12
  call void @llvm.lifetime.end.p0(i64 8, ptr %8) #12
  %46 = load i32, ptr %4, align 4
  ret i32 %46
}