; Function Attrs: nounwind uwtable
define internal range(i32 -2147483648, 1) i32 @opt_filter_complex_script(ptr noundef %0, ptr noundef %1, ptr noundef %2) #0 {
  %4 = alloca ptr, align 8
  call void @llvm.lifetime.start.p0(i64 8, ptr nonnull %4) #15
  %5 = tail call ptr @file_read(ptr noundef %2) #15
  store ptr %5, ptr %4, align 8, !tbaa !22
  %.not = icmp eq ptr %5, null
  br i1 %.not, label %20, label %6

6:                                                ; preds = %3
  tail call void (ptr, i32, ptr, ...) @av_log(ptr noundef null, i32 noundef 24, ptr noundef nonnull @.str.610, ptr noundef %1, ptr noundef %2) #15
  %7 = getelementptr inbounds nuw i8, ptr %0, i64 8
  %8 = getelementptr inbounds nuw i8, ptr %0, i64 16
  %9 = load i32, ptr %8, align 8, !tbaa !87
  %10 = add nsw i32 %9, 1
  %11 = tail call i32 @grow_array(ptr noundef nonnull %7, i32 noundef 8, ptr noundef nonnull %8, i32 noundef %10) #15
  %12 = icmp slt i32 %11, 0
  br i1 %12, label %13, label %14

13:                                               ; preds = %6
  call void @av_freep(ptr noundef nonnull %4) #15
  br label %20

14:                                               ; preds = %6
  %15 = load ptr, ptr %7, align 8, !tbaa !88
  %16 = load i32, ptr %8, align 8, !tbaa !87
  %17 = sext i32 %16 to i64
  %18 = getelementptr ptr, ptr %15, i64 %17
  %19 = getelementptr i8, ptr %18, i64 -8
  store ptr %5, ptr %19, align 8, !tbaa !22
  br label %20

20:                                               ; preds = %3, %14, %13
  %.0 = phi i32 [ %11, %13 ], [ 0, %14 ], [ -22, %3 ]
  call void @llvm.lifetime.end.p0(i64 8, ptr nonnull %4) #15
  ret i32 %.0
}